; Function Attrs: mustprogress nounwind uwtable
define internal fastcc void @"_ZSt21__inplace_stable_sortIPN12_GLOBAL__N_111FactOrCheckEN9__gnu_cxx5__ops15_Iter_comp_iterIZL20eliminateConstraintsRN4llvm8FunctionERNS6_13DominatorTreeERNS6_8LoopInfoERNS6_15ScalarEvolutionERNS6_25OptimizationRemarkEmitterEE3$_0EEEvT_SJ_T0_"(ptr noundef %0, ptr noundef %1) unnamed_addr #0 {
  %3 = ptrtoint ptr %1 to i64
  %4 = ptrtoint ptr %0 to i64
  %5 = sub i64 %3, %4
  %6 = ashr exact i64 %5, 6
  %7 = icmp slt i64 %6, 15
  br i1 %7, label %common.ret, label %8

common.ret:                                       ; preds = %2
  tail call fastcc void @"_ZSt16__insertion_sortIPN12_GLOBAL__N_111FactOrCheckEN9__gnu_cxx5__ops15_Iter_comp_iterIZL20eliminateConstraintsRN4llvm8FunctionERNS6_13DominatorTreeERNS6_8LoopInfoERNS6_15ScalarEvolutionERNS6_25OptimizationRemarkEmitterEE3$_0EEEvT_SJ_T0_"(ptr noundef %0, ptr noundef %1)
  br label %common.ret25

common.ret25:                                     ; preds = %8, %common.ret
  ret void

8:                                                ; preds = %2
  %9 = lshr i64 %6, 1
  %10 = getelementptr inbounds %"struct.(anonymous namespace)::FactOrCheck", ptr %0, i64 %9
  tail call fastcc void @"_ZSt21__inplace_stable_sortIPN12_GLOBAL__N_111FactOrCheckEN9__gnu_cxx5__ops15_Iter_comp_iterIZL20eliminateConstraintsRN4llvm8FunctionERNS6_13DominatorTreeERNS6_8LoopInfoERNS6_15ScalarEvolutionERNS6_25OptimizationRemarkEmitterEE3$_0EEEvT_SJ_T0_"(ptr noundef %0, ptr noundef %10)
  tail call fastcc void @"_ZSt21__inplace_stable_sortIPN12_GLOBAL__N_111FactOrCheckEN9__gnu_cxx5__ops15_Iter_comp_iterIZL20eliminateConstraintsRN4llvm8FunctionERNS6_13DominatorTreeERNS6_8LoopInfoERNS6_15ScalarEvolutionERNS6_25OptimizationRemarkEmitterEE3$_0EEEvT_SJ_T0_"(ptr noundef %10, ptr noundef %1)
  %11 = ptrtoint ptr %10 to i64
  %12 = sub i64 %3, %11
  %13 = ashr exact i64 %12, 6
  tail call fastcc void @"_ZSt22__merge_without_bufferIPN12_GLOBAL__N_111FactOrCheckElN9__gnu_cxx5__ops15_Iter_comp_iterIZL20eliminateConstraintsRN4llvm8FunctionERNS6_13DominatorTreeERNS6_8LoopInfoERNS6_15ScalarEvolutionERNS6_25OptimizationRemarkEmitterEE3$_0EEEvT_SJ_SJ_T0_SK_T1_"(ptr noundef %0, ptr noundef %10, ptr noundef %1, i64 noundef %9, i64 noundef %13)
  br label %common.ret25
}